(dp0
Vengine
p1
Vxelatex
p2
sVpackages
p3
c__builtin__
set
p4
((lp5
Vkotex
p6
aVamsmath
p7
aVfullpage
p8
aVxob-amssymb
p9
aVbeamerarticle
p10
aVamsthm
p11
aVenumerate
p12
aVcancel
p13
aVamsfonts
p14
aVulem
p15
atp16
Rp17
sVfiles_with_guttermarks
p18
g4
((lp19
S'03.OneVarCalculus3.tex'
p20
aV/Users/Namun/Documents/_Clouds/DropBox1/Dropbox/__Documents/lecture/2016-1/_latest_resources/EconMath/_handout/./03.OneVarCalculus3.tex
p21
atp22
Rp23
sVsynctex
p24
I01
s.