(dp0
Vengine
p1
Vxelatex
p2
sVpackages
p3
c__builtin__
set
p4
((lp5
Vkotex
p6
aVamsmath
p7
aVfullpage
p8
aVxob-amssymb
p9
aVamsthm
p10
aVenumerate
p11
aVcancel
p12
aVamsfonts
p13
aVulem
p14
atp15
Rp16
sVfiles_with_guttermarks
p17
g4
((lp18
S'03.OneVarCalculus3.tex'
p19
atp20
Rp21
sVsynctex
p22
I01
s.