(dp0
Vengine
p1
Vxelatex
p2
sVpackages
p3
c__builtin__
set
p4
((lp5
Vkotex
p6
aVamsmath
p7
aVfullpage
p8
aVxob-amssymb
p9
aVenumerate
p10
aVamsthm
p11
aVbeamerarticle
p12
aVcancel
p13
aVamsfonts
p14
aVulem
p15
atp16
Rp17
sVfiles_with_guttermarks
p18
g4
((lp19
V/Users/Namun/Documents/_Clouds/DropBox1/Dropbox/__Documents/lecture/2016-1/_latest_resources/EconMath/_handout/./09.Vector.Ch10.tex
p20
aS'09.Vector.Ch10.tex'
p21
aV/Users/Namun/Documents/_Clouds/DropBox1/Dropbox/__Documents/lecture/2016-1/_latest_resources/EconMath/_handout/./09.Vector.Ch10.toc
p22
atp23
Rp24
sVsynctex
p25
I01
s.